target datalayout = "e-m:e-p270:32:32-p271:32:32-p272:64:64-i64:64-i128:128-f80:128-n8:16:32:64-S128"
target triple = "x86_64-pc-linux-gnu"

%struct._object = type { %union.anon, ptr }
%union.anon = type { i64 }
%struct._typeobject = type { %struct.PyVarObject, ptr, i64, i64, ptr, i64, ptr, ptr, ptr, ptr, ptr, ptr, ptr, ptr, ptr, ptr, ptr, ptr, ptr, i64, ptr, ptr, ptr, ptr, i64, ptr, ptr, ptr, ptr, ptr, ptr, ptr, ptr, ptr, i64, ptr, ptr, ptr, ptr, ptr, ptr, ptr, ptr, ptr, ptr, ptr, i32, ptr, ptr, i8, i16 }
%struct.PyVarObject = type { %struct._object, i64 }

@.str.32 = private unnamed_addr constant [40 x i8] c"../cpython/Modules/_testcapi/watchers.c\00", align 1
@.str.49 = private unnamed_addr constant [28 x i8] c"PyLong_Check(which_watcher)\00", align 1
@__PRETTY_FUNCTION__.add_code_watcher = private unnamed_addr constant [51 x i8] c"PyObject *add_code_watcher(PyObject *, PyObject *)\00", align 1
@code_watcher_ids = internal global [2 x i32] [i32 -1, i32 -1], align 4
@num_code_object_created_events = internal global [2 x i32] zeroinitializer, align 4
@num_code_object_destroyed_events = internal global [2 x i32] zeroinitializer, align 4
@PyExc_ValueError = external global ptr, align 8
@.str.50 = private unnamed_addr constant [19 x i8] c"invalid watcher %d\00", align 1

; Function Attrs: inlinehint nounwind uwtable
define internal i32 @PyType_HasFeature(ptr noundef %0, i64 noundef %1) #3 {
  %3 = alloca ptr, align 8
  %4 = alloca i64, align 8
  %5 = alloca i64, align 8
  store ptr %0, ptr %3, align 8, !tbaa !43
  store i64 %1, ptr %4, align 8, !tbaa !12
  call void @llvm.lifetime.start.p0(i64 8, ptr %5) #6
  %6 = load ptr, ptr %3, align 8, !tbaa !43
  %7 = getelementptr inbounds nuw %struct._typeobject, ptr %6, i32 0, i32 19
  %8 = load i64, ptr %7, align 8, !tbaa !44
  store i64 %8, ptr %5, align 8, !tbaa !12
  %9 = load i64, ptr %5, align 8, !tbaa !12
  %10 = load i64, ptr %4, align 8, !tbaa !12
  %11 = and i64 %9, %10
  %12 = icmp ne i64 %11, 0
  %13 = zext i1 %12 to i32
  call void @llvm.lifetime.end.p0(i64 8, ptr %5) #6
  ret i32 %13
}

; Function Attrs: inlinehint nounwind uwtable
define internal ptr @_Py_TYPE(ptr noundef %0) #3 {
  %2 = alloca ptr, align 8
  store ptr %0, ptr %2, align 8, !tbaa !3
  %3 = load ptr, ptr %2, align 8, !tbaa !3
  %4 = getelementptr inbounds nuw %struct._object, ptr %3, i32 0, i32 1
  %5 = load ptr, ptr %4, align 8, !tbaa !51
  ret ptr %5
}

; Function Attrs: nounwind uwtable
define internal ptr @add_code_watcher(ptr noundef %0, ptr noundef %1) #0 {
  %3 = alloca ptr, align 8
  %4 = alloca ptr, align 8
  %5 = alloca ptr, align 8
  %6 = alloca i32, align 4
  %7 = alloca i64, align 8
  %8 = alloca i32, align 4
  store ptr %0, ptr %4, align 8, !tbaa !3
  store ptr %1, ptr %5, align 8, !tbaa !3
  call void @llvm.lifetime.start.p0(i64 4, ptr %6) #6
  %9 = load ptr, ptr %5, align 8, !tbaa !3
  %10 = call ptr @_Py_TYPE(ptr noundef %9)
  %11 = call i32 @PyType_HasFeature(ptr noundef %10, i64 noundef 16777216)
  %12 = icmp ne i32 %11, 0
  br i1 %12, label %13, label %14

13:                                               ; preds = %2
  br label %16

14:                                               ; preds = %2
  call void @__assert_fail(ptr noundef @.str.49, ptr noundef @.str.32, i32 noundef 349, ptr noundef @__PRETTY_FUNCTION__.add_code_watcher) #7
  unreachable

15:                                               ; No predecessors!
  br label %16

16:                                               ; preds = %15, %13
  call void @llvm.lifetime.start.p0(i64 8, ptr %7) #6
  %17 = load ptr, ptr %5, align 8, !tbaa !3
  %18 = call i64 @PyLong_AsLong(ptr noundef %17)
  store i64 %18, ptr %7, align 8, !tbaa !12
  %19 = load i64, ptr %7, align 8, !tbaa !12
  %20 = icmp eq i64 %19, 0
  br i1 %20, label %21, label %24

21:                                               ; preds = %16
  %22 = call i32 @PyCode_AddWatcher(ptr noundef @first_code_object_callback)
  store i32 %22, ptr %6, align 4, !tbaa !10
  %23 = load i32, ptr %6, align 4, !tbaa !10
  store i32 %23, ptr @code_watcher_ids, align 4, !tbaa !10
  store i32 0, ptr @num_code_object_created_events, align 4, !tbaa !10
  store i32 0, ptr @num_code_object_destroyed_events, align 4, !tbaa !10
  br label %41

24:                                               ; preds = %16
  %25 = load i64, ptr %7, align 8, !tbaa !12
  %26 = icmp eq i64 %25, 1
  br i1 %26, label %27, label %30

27:                                               ; preds = %24
  %28 = call i32 @PyCode_AddWatcher(ptr noundef @second_code_object_callback)
  store i32 %28, ptr %6, align 4, !tbaa !10
  %29 = load i32, ptr %6, align 4, !tbaa !10
  store i32 %29, ptr getelementptr ([2 x i32], ptr @code_watcher_ids, i64 0, i64 1), align 4, !tbaa !10
  store i32 0, ptr getelementptr ([2 x i32], ptr @num_code_object_created_events, i64 0, i64 1), align 4, !tbaa !10
  store i32 0, ptr getelementptr ([2 x i32], ptr @num_code_object_destroyed_events, i64 0, i64 1), align 4, !tbaa !10
  br label %40

30:                                               ; preds = %24
  %31 = load i64, ptr %7, align 8, !tbaa !12
  %32 = icmp eq i64 %31, 2
  br i1 %32, label %33, label %35

33:                                               ; preds = %30
  %34 = call i32 @PyCode_AddWatcher(ptr noundef @error_code_event_handler)
  store i32 %34, ptr %6, align 4, !tbaa !10
  br label %39

35:                                               ; preds = %30
  %36 = load ptr, ptr @PyExc_ValueError, align 8, !tbaa !3
  %37 = load i64, ptr %7, align 8, !tbaa !12
  %38 = call ptr (ptr, ptr, ...) @PyErr_Format(ptr noundef %36, ptr noundef @.str.50, i64 noundef %37)
  store ptr null, ptr %3, align 8
  store i32 1, ptr %8, align 4
  br label %49

39:                                               ; preds = %33
  br label %40

40:                                               ; preds = %39, %27
  br label %41

41:                                               ; preds = %40, %21
  %42 = load i32, ptr %6, align 4, !tbaa !10
  %43 = icmp slt i32 %42, 0
  br i1 %43, label %44, label %45

44:                                               ; preds = %41
  store ptr null, ptr %3, align 8
  store i32 1, ptr %8, align 4
  br label %49

45:                                               ; preds = %41
  %46 = load i32, ptr %6, align 4, !tbaa !10
  %47 = sext i32 %46 to i64
  %48 = call ptr @PyLong_FromLong(i64 noundef %47)
  store ptr %48, ptr %3, align 8
  store i32 1, ptr %8, align 4
  br label %49

49:                                               ; preds = %45, %44, %35
  call void @llvm.lifetime.end.p0(i64 8, ptr %7) #6
  call void @llvm.lifetime.end.p0(i64 4, ptr %6) #6
  %50 = load ptr, ptr %3, align 8
  ret ptr %50
}