; Function Attrs: nounwind uwtable
define internal ptr @add_code_watcher(ptr readnone captures(none) %0, ptr noundef %1) #0 {
  %3 = getelementptr i8, ptr %1, i64 8
  %.val = load ptr, ptr %3, align 8, !tbaa !3
  %4 = getelementptr i8, ptr %.val, i64 168
  %.val12 = load i64, ptr %4, align 8, !tbaa !9
  %5 = and i64 %.val12, 16777216
  %.not = icmp eq i64 %5, 0
  br i1 %.not, label %6, label %7

6:                                                ; preds = %2
  tail call void @__assert_fail(ptr noundef nonnull @.str.49, ptr noundef nonnull @.str.32, i32 noundef 349, ptr noundef nonnull @__PRETTY_FUNCTION__.add_code_watcher) #7
  unreachable

7:                                                ; preds = %2
  %8 = tail call i64 @PyLong_AsLong(ptr noundef nonnull %1) #6
  switch i64 %8, label %15 [
    i64 0, label %9
    i64 1, label %11
    i64 2, label %13
  ]

9:                                                ; preds = %7
  %10 = tail call i32 @PyCode_AddWatcher(ptr noundef nonnull @first_code_object_callback) #6
  store i32 %10, ptr @code_watcher_ids, align 4, !tbaa !20
  store i32 0, ptr @num_code_object_created_events, align 4, !tbaa !20
  store i32 0, ptr @num_code_object_destroyed_events, align 4, !tbaa !20
  br label %18

11:                                               ; preds = %7
  %12 = tail call i32 @PyCode_AddWatcher(ptr noundef nonnull @second_code_object_callback) #6
  store i32 %12, ptr getelementptr inbounds nuw (i8, ptr @code_watcher_ids, i64 4), align 4, !tbaa !20
  store i32 0, ptr getelementptr inbounds nuw (i8, ptr @num_code_object_created_events, i64 4), align 4, !tbaa !20
  store i32 0, ptr getelementptr inbounds nuw (i8, ptr @num_code_object_destroyed_events, i64 4), align 4, !tbaa !20
  br label %18

13:                                               ; preds = %7
  %14 = tail call i32 @PyCode_AddWatcher(ptr noundef nonnull @error_code_event_handler) #6
  br label %18

15:                                               ; preds = %7
  %16 = load ptr, ptr @PyExc_ValueError, align 8, !tbaa !21
  %17 = tail call ptr (ptr, ptr, ...) @PyErr_Format(ptr noundef %16, ptr noundef nonnull @.str.50, i64 noundef %8) #6
  br label %23

18:                                               ; preds = %11, %13, %9
  %.010 = phi i32 [ %10, %9 ], [ %12, %11 ], [ %14, %13 ]
  %19 = icmp slt i32 %.010, 0
  br i1 %19, label %23, label %20

20:                                               ; preds = %18
  %21 = zext nneg i32 %.010 to i64
  %22 = tail call ptr @PyLong_FromLong(i64 noundef %21) #6
  br label %23

23:                                               ; preds = %18, %20, %15
  %.0 = phi ptr [ %22, %20 ], [ null, %15 ], [ null, %18 ]
  ret ptr %.0
}